target datalayout = "e-m:e-p270:32:32-p271:32:32-p272:64:64-i64:64-i128:128-f80:128-n8:16:32:64-S128"
target triple = "x86_64-pc-linux-gnu"

%struct.expert_field = type { i32, i32 }

@ei_ansi_801_extraneous_data = internal global %struct.expert_field zeroinitializer, align 4
@ei_ansi_801_short_data = internal global %struct.expert_field zeroinitializer, align 4
@__const.for_pr_gps_almanac.fields = private unnamed_addr constant [6 x ptr] [ptr @hf_ansi_801_num_sv_p32, ptr @hf_ansi_801_week_num, ptr @hf_ansi_801_toa, ptr @hf_ansi_801_part_num32, ptr @hf_ansi_801_total_parts32, ptr null], align 16

; Function Attrs: null_pointer_is_valid sspstrong uwtable
define internal void @for_pr_gps_almanac(ptr noundef %0, ptr noundef %1, ptr noundef %2, i32 noundef %3, i32 noundef %4) #0 {
  %6 = alloca ptr, align 8
  %7 = alloca ptr, align 8
  %8 = alloca ptr, align 8
  %9 = alloca i32, align 4
  %10 = alloca i32, align 4
  %11 = alloca i32, align 4
  %12 = alloca [6 x ptr], align 16
  %13 = alloca i32, align 4
  store ptr %0, ptr %6, align 8
  store ptr %1, ptr %7, align 8
  store ptr %2, ptr %8, align 8
  store i32 %3, ptr %9, align 4
  store i32 %4, ptr %10, align 4
  call void @llvm.lifetime.start.p0(i64 4, ptr %11) #6
  %14 = load i32, ptr %10, align 4
  store i32 %14, ptr %11, align 4
  call void @llvm.lifetime.start.p0(i64 48, ptr %12) #6
  call void @llvm.memcpy.p0.p0.i64(ptr align 16 %12, ptr align 16 @__const.for_pr_gps_almanac.fields, i64 48, i1 false)
  %15 = load i32, ptr %9, align 4
  %16 = icmp ult i32 %15, 4
  br i1 %16, label %17, label %24

17:                                               ; preds = %5
  %18 = load ptr, ptr %8, align 8
  %19 = load ptr, ptr %7, align 8
  %20 = load ptr, ptr %6, align 8
  %21 = load i32, ptr %10, align 4
  %22 = load i32, ptr %9, align 4
  %23 = call ptr @proto_tree_add_expert(ptr noundef %18, ptr noundef %19, ptr noundef @ei_ansi_801_short_data, ptr noundef %20, i32 noundef %21, i32 noundef %22)
  store i32 1, ptr %13, align 4
  br label %48

24:                                               ; preds = %5
  %25 = load ptr, ptr %8, align 8
  %26 = load ptr, ptr %6, align 8
  %27 = load i32, ptr %10, align 4
  %28 = getelementptr inbounds [6 x ptr], ptr %12, i64 0, i64 0
  call void @proto_tree_add_bitmask_list(ptr noundef %25, ptr noundef %26, i32 noundef %27, i32 noundef 4, ptr noundef %28, i32 noundef 0)
  %29 = load i32, ptr %10, align 4
  %30 = add i32 %29, 4
  store i32 %30, ptr %10, align 4
  %31 = load i32, ptr %9, align 4
  %32 = load i32, ptr %10, align 4
  %33 = load i32, ptr %11, align 4
  %34 = sub i32 %32, %33
  %35 = icmp ugt i32 %31, %34
  br i1 %35, label %36, label %47

36:                                               ; preds = %24
  %37 = load ptr, ptr %8, align 8
  %38 = load ptr, ptr %7, align 8
  %39 = load ptr, ptr %6, align 8
  %40 = load i32, ptr %10, align 4
  %41 = load i32, ptr %9, align 4
  %42 = load i32, ptr %10, align 4
  %43 = load i32, ptr %11, align 4
  %44 = sub i32 %42, %43
  %45 = sub i32 %41, %44
  %46 = call ptr @proto_tree_add_expert(ptr noundef %37, ptr noundef %38, ptr noundef @ei_ansi_801_extraneous_data, ptr noundef %39, i32 noundef %40, i32 noundef %45)
  br label %47

47:                                               ; preds = %36, %24
  store i32 0, ptr %13, align 4
  br label %48

48:                                               ; preds = %47, %17
  call void @llvm.lifetime.end.p0(i64 48, ptr %12) #6
  call void @llvm.lifetime.end.p0(i64 4, ptr %11) #6
  %49 = load i32, ptr %13, align 4
  switch i32 %49, label %51 [
    i32 0, label %50
    i32 1, label %50
  ]

50:                                               ; preds = %48, %48
  ret void

51:                                               ; preds = %48
  unreachable
}