; Function Attrs: null_pointer_is_valid sspstrong uwtable
define internal void @for_pr_gps_almanac(ptr noundef %0, ptr noundef %1, ptr noundef %2, i32 noundef %3, i32 noundef %4) #0 {
  %6 = alloca [6 x ptr], align 16
  call void @llvm.lifetime.start.p0(i64 48, ptr nonnull %6) #6
  call void @llvm.memcpy.p0.p0.i64(ptr noundef nonnull align 16 dereferenceable(48) %6, ptr noundef nonnull align 16 dereferenceable(48) @__const.for_pr_gps_almanac.fields, i64 48, i1 false)
  %7 = icmp ult i32 %3, 4
  br i1 %7, label %8, label %10

8:                                                ; preds = %5
  %9 = tail call ptr @proto_tree_add_expert(ptr noundef %2, ptr noundef %1, ptr noundef nonnull @ei_ansi_801_short_data, ptr noundef %0, i32 noundef %4, i32 noundef %3)
  br label %15

10:                                               ; preds = %5
  call void @proto_tree_add_bitmask_list(ptr noundef %2, ptr noundef %0, i32 noundef %4, i32 noundef 4, ptr noundef nonnull %6, i32 noundef 0)
  %.not = icmp eq i32 %3, 4
  br i1 %.not, label %15, label %11

11:                                               ; preds = %10
  %12 = add i32 %4, 4
  %13 = add i32 %3, -4
  %14 = call ptr @proto_tree_add_expert(ptr noundef %2, ptr noundef %1, ptr noundef nonnull @ei_ansi_801_extraneous_data, ptr noundef %0, i32 noundef %12, i32 noundef %13)
  br label %15

15:                                               ; preds = %10, %11, %8
  call void @llvm.lifetime.end.p0(i64 48, ptr nonnull %6) #6
  ret void
}